target datalayout = "e-m:e-p270:32:32-p271:32:32-p272:64:64-i64:64-i128:128-f80:128-n8:16:32:64-S128"
target triple = "x86_64-pc-linux-gnu"

%struct._lv_menu_t = type { %struct._lv_obj_t, ptr, ptr, ptr, ptr, ptr, ptr, ptr, ptr, ptr, ptr, ptr, ptr, %struct.lv_ll_t, i8, i8, i8 }
%struct._lv_obj_t = type { ptr, ptr, ptr, ptr, ptr, %struct.lv_area_t, i32, i16, i16 }
%struct.lv_area_t = type { i32, i32, i32, i32 }
%struct.lv_ll_t = type { i32, ptr, ptr }

; Function Attrs: nounwind uwtable
define void @lv_menu_set_mode_header(ptr noundef %0, i32 noundef %1) #0 {
  %3 = alloca ptr, align 8
  %4 = alloca i32, align 4
  %5 = alloca ptr, align 8
  store ptr %0, ptr %3, align 8, !tbaa !3
  store i32 %1, ptr %4, align 4, !tbaa !35
  br label %6

6:                                                ; preds = %2
  br label %7

7:                                                ; preds = %6
  call void @llvm.lifetime.start.p0(i64 8, ptr %5) #3
  %8 = load ptr, ptr %3, align 8, !tbaa !3
  store ptr %8, ptr %5, align 8, !tbaa !3
  %9 = load ptr, ptr %5, align 8, !tbaa !3
  %10 = getelementptr inbounds nuw %struct._lv_menu_t, ptr %9, i32 0, i32 16
  %11 = load i8, ptr %10, align 2
  %12 = lshr i8 %11, 1
  %13 = and i8 %12, 3
  %14 = zext i8 %13 to i32
  %15 = load i32, ptr %4, align 4, !tbaa !35
  %16 = icmp ne i32 %14, %15
  br i1 %16, label %17, label %36

17:                                               ; preds = %7
  %18 = load i32, ptr %4, align 4, !tbaa !35
  %19 = load ptr, ptr %5, align 8, !tbaa !3
  %20 = getelementptr inbounds nuw %struct._lv_menu_t, ptr %19, i32 0, i32 16
  %21 = trunc i32 %18 to i8
  %22 = load i8, ptr %20, align 2
  %23 = and i8 %21, 3
  %24 = shl i8 %23, 1
  %25 = and i8 %22, -7
  %26 = or i8 %25, %24
  store i8 %26, ptr %20, align 2
  %27 = load ptr, ptr %3, align 8, !tbaa !3
  call void @lv_menu_refr_main_header_mode(ptr noundef %27)
  %28 = load ptr, ptr %5, align 8, !tbaa !3
  %29 = getelementptr inbounds nuw %struct._lv_menu_t, ptr %28, i32 0, i32 16
  %30 = load i8, ptr %29, align 2
  %31 = and i8 %30, 1
  %32 = icmp ne i8 %31, 0
  br i1 %32, label %33, label %35

33:                                               ; preds = %17
  %34 = load ptr, ptr %3, align 8, !tbaa !3
  call void @lv_menu_refr_sidebar_header_mode(ptr noundef %34)
  br label %35

35:                                               ; preds = %33, %17
  br label %36

36:                                               ; preds = %35, %7
  call void @llvm.lifetime.end.p0(i64 8, ptr %5) #3
  ret void
}