; Function Attrs: nounwind uwtable
define void @lv_menu_set_mode_header(ptr nocapture noundef %0, i32 noundef %1) local_unnamed_addr #0 {
  %3 = getelementptr inbounds nuw i8, ptr %0, i64 186
  %4 = load i8, ptr %3, align 2
  %5 = lshr i8 %4, 1
  %6 = and i8 %5, 3
  %7 = zext nneg i8 %6 to i32
  %.not = icmp eq i32 %1, %7
  br i1 %.not, label %17, label %8

8:                                                ; preds = %2
  %9 = trunc i32 %1 to i8
  %10 = shl i8 %9, 1
  %11 = and i8 %10, 6
  %12 = and i8 %4, -7
  %13 = or disjoint i8 %12, %11
  store i8 %13, ptr %3, align 2
  tail call fastcc void @lv_menu_refr_main_header_mode(ptr noundef nonnull %0)
  %14 = load i8, ptr %3, align 2
  %15 = and i8 %14, 1
  %.not7 = icmp eq i8 %15, 0
  br i1 %.not7, label %17, label %16

16:                                               ; preds = %8
  tail call fastcc void @lv_menu_refr_sidebar_header_mode(ptr noundef nonnull %0)
  br label %17

17:                                               ; preds = %8, %16, %2
  ret void
}